; Function Attrs: mustprogress nofree norecurse nosync nounwind sspstrong willreturn memory(none) uwtable
define internal range(i32 0, 2) i32 @is_code_ctype(i32 noundef %0, i32 noundef %1, ptr readnone captures(none) %2) #3 {
  %4 = icmp ult i32 %0, 256
  br i1 %4, label %5, label %12

5:                                                ; preds = %3
  %6 = zext nneg i32 %0 to i64
  %7 = getelementptr inbounds nuw [256 x i16], ptr @EncISO_8859_4_CtypeTable, i64 0, i64 %6
  %8 = load i16, ptr %7, align 2, !tbaa !12
  %9 = zext i16 %8 to i32
  %10 = lshr i32 %9, %1
  %11 = and i32 %10, 1
  br label %12

12:                                               ; preds = %3, %5
  %.0 = phi i32 [ %11, %5 ], [ 0, %3 ]
  ret i32 %.0
}